; ModuleID = 'source-C-CXX/4/73.c'
source_filename = "source-C-CXX/4/73.c"
target datalayout = "e-m:e-p270:32:32-p271:32:32-p272:64:64-i64:64-f80:128-n8:16:32:64-S128"
target triple = "x86_64-pc-linux-gnu"

@.str = private unnamed_addr constant [4 x i8] c"%lf\00", align 1
@.str.1 = private unnamed_addr constant [5 x i8] c"%s%s\00", align 1
@.str.2 = private unnamed_addr constant [6 x i8] c"error\00", align 1
@.str.3 = private unnamed_addr constant [4 x i8] c"yes\00", align 1
@.str.4 = private unnamed_addr constant [3 x i8] c"no\00", align 1

; Function Attrs: nofree nounwind sspstrong uwtable
define dso_local i32 @main() local_unnamed_addr #0 {
  %1 = alloca [500 x i8], align 16
  %2 = alloca [500 x i8], align 16
  %3 = alloca double, align 8
  %4 = getelementptr inbounds [500 x i8], [500 x i8]* %1, i64 0, i64 0
  call void @llvm.lifetime.start.p0i8(i64 500, i8* nonnull %4) #5
  %5 = getelementptr inbounds [500 x i8], [500 x i8]* %2, i64 0, i64 0
  call void @llvm.lifetime.start.p0i8(i64 500, i8* nonnull %5) #5
  %6 = bitcast double* %3 to i8*
  call void @llvm.lifetime.start.p0i8(i64 8, i8* nonnull %6) #5
  %7 = call i32 (i8*, ...) @__isoc99_scanf(i8* getelementptr inbounds ([4 x i8], [4 x i8]* @.str, i64 0, i64 0), double* nonnull %3)
  %8 = call i32 (i8*, ...) @__isoc99_scanf(i8* getelementptr inbounds ([5 x i8], [5 x i8]* @.str.1, i64 0, i64 0), i8* nonnull %4, i8* nonnull %5)
  %9 = call i64 @strlen(i8* noundef nonnull %4) #6
  %10 = trunc i64 %9 to i32
  %11 = call i64 @strlen(i8* noundef nonnull %5) #6
  %12 = trunc i64 %11 to i32
  %13 = icmp eq i32 %10, %12
  br i1 %13, label %14, label %88

14:                                               ; preds = %0
  %15 = icmp sgt i32 %10, 0
  br i1 %15, label %16, label %81

16:                                               ; preds = %14
  %17 = and i64 %9, 4294967295
  br label %18

18:                                               ; preds = %16, %25
  %19 = phi i64 [ 0, %16 ], [ %26, %25 ]
  %20 = getelementptr inbounds [500 x i8], [500 x i8]* %1, i64 0, i64 %19
  %21 = load i8, i8* %20, align 1, !tbaa !5
  switch i8 %21, label %88 [
    i8 65, label %22
    i8 84, label %22
    i8 67, label %22
    i8 71, label %22
  ]

22:                                               ; preds = %18, %18, %18, %18
  %23 = getelementptr inbounds [500 x i8], [500 x i8]* %2, i64 0, i64 %19
  %24 = load i8, i8* %23, align 1, !tbaa !5
  switch i8 %24, label %88 [
    i8 65, label %25
    i8 84, label %25
    i8 67, label %25
    i8 71, label %25
  ]

25:                                               ; preds = %22, %22, %22, %22
  %26 = add nuw nsw i64 %19, 1
  %27 = icmp eq i64 %26, %17
  br i1 %27, label %28, label %18, !llvm.loop !8

28:                                               ; preds = %25
  br i1 %15, label %29, label %81

29:                                               ; preds = %28
  %30 = and i64 %9, 4294967295
  %31 = icmp ult i64 %30, 8
  br i1 %31, label %63, label %32

32:                                               ; preds = %29
  %33 = and i64 %9, 7
  %34 = sub nsw i64 %30, %33
  br label %35

35:                                               ; preds = %35, %32
  %36 = phi i64 [ 0, %32 ], [ %57, %35 ]
  %37 = phi <4 x i32> [ zeroinitializer, %32 ], [ %55, %35 ]
  %38 = phi <4 x i32> [ zeroinitializer, %32 ], [ %56, %35 ]
  %39 = getelementptr inbounds [500 x i8], [500 x i8]* %1, i64 0, i64 %36
  %40 = bitcast i8* %39 to <4 x i8>*
  %41 = load <4 x i8>, <4 x i8>* %40, align 8, !tbaa !5
  %42 = getelementptr inbounds i8, i8* %39, i64 4
  %43 = bitcast i8* %42 to <4 x i8>*
  %44 = load <4 x i8>, <4 x i8>* %43, align 4, !tbaa !5
  %45 = getelementptr inbounds [500 x i8], [500 x i8]* %2, i64 0, i64 %36
  %46 = bitcast i8* %45 to <4 x i8>*
  %47 = load <4 x i8>, <4 x i8>* %46, align 8, !tbaa !5
  %48 = getelementptr inbounds i8, i8* %45, i64 4
  %49 = bitcast i8* %48 to <4 x i8>*
  %50 = load <4 x i8>, <4 x i8>* %49, align 4, !tbaa !5
  %51 = icmp eq <4 x i8> %41, %47
  %52 = icmp eq <4 x i8> %44, %50
  %53 = zext <4 x i1> %51 to <4 x i32>
  %54 = zext <4 x i1> %52 to <4 x i32>
  %55 = add <4 x i32> %37, %53
  %56 = add <4 x i32> %38, %54
  %57 = add nuw i64 %36, 8
  %58 = icmp eq i64 %57, %34
  br i1 %58, label %59, label %35, !llvm.loop !10

59:                                               ; preds = %35
  %60 = add <4 x i32> %56, %55
  %61 = call i32 @llvm.vector.reduce.add.v4i32(<4 x i32> %60)
  %62 = icmp eq i64 %33, 0
  br i1 %62, label %78, label %63

63:                                               ; preds = %29, %59
  %64 = phi i64 [ 0, %29 ], [ %34, %59 ]
  %65 = phi i32 [ 0, %29 ], [ %61, %59 ]
  br label %66

66:                                               ; preds = %63, %66
  %67 = phi i64 [ %76, %66 ], [ %64, %63 ]
  %68 = phi i32 [ %75, %66 ], [ %65, %63 ]
  %69 = getelementptr inbounds [500 x i8], [500 x i8]* %1, i64 0, i64 %67
  %70 = load i8, i8* %69, align 1, !tbaa !5
  %71 = getelementptr inbounds [500 x i8], [500 x i8]* %2, i64 0, i64 %67
  %72 = load i8, i8* %71, align 1, !tbaa !5
  %73 = icmp eq i8 %70, %72
  %74 = zext i1 %73 to i32
  %75 = add nuw nsw i32 %68, %74
  %76 = add nuw nsw i64 %67, 1
  %77 = icmp eq i64 %76, %30
  br i1 %77, label %78, label %66, !llvm.loop !12

78:                                               ; preds = %66, %59
  %79 = phi i32 [ %61, %59 ], [ %75, %66 ]
  %80 = sitofp i32 %79 to double
  br label %81

81:                                               ; preds = %14, %78, %28
  %82 = phi double [ 0.000000e+00, %28 ], [ %80, %78 ], [ 0.000000e+00, %14 ]
  %83 = sitofp i32 %10 to double
  %84 = fdiv double %82, %83
  %85 = load double, double* %3, align 8, !tbaa !14
  %86 = fcmp ogt double %84, %85
  %87 = select i1 %86, i8* getelementptr inbounds ([4 x i8], [4 x i8]* @.str.3, i64 0, i64 0), i8* getelementptr inbounds ([3 x i8], [3 x i8]* @.str.4, i64 0, i64 0)
  br label %88

88:                                               ; preds = %18, %22, %81, %0
  %89 = phi i8* [ getelementptr inbounds ([6 x i8], [6 x i8]* @.str.2, i64 0, i64 0), %0 ], [ %87, %81 ], [ getelementptr inbounds ([6 x i8], [6 x i8]* @.str.2, i64 0, i64 0), %22 ], [ getelementptr inbounds ([6 x i8], [6 x i8]* @.str.2, i64 0, i64 0), %18 ]
  %90 = call i32 (i8*, ...) @printf(i8* nonnull dereferenceable(1) %89)
  call void @llvm.lifetime.end.p0i8(i64 8, i8* nonnull %6) #5
  call void @llvm.lifetime.end.p0i8(i64 500, i8* nonnull %5) #5
  call void @llvm.lifetime.end.p0i8(i64 500, i8* nonnull %4) #5
  ret i32 0
}

; Function Attrs: argmemonly mustprogress nofree nosync nounwind willreturn
declare void @llvm.lifetime.start.p0i8(i64 immarg, i8* nocapture) #1

; Function Attrs: nofree nounwind
declare noundef i32 @__isoc99_scanf(i8* nocapture noundef readonly, ...) local_unnamed_addr #2

; Function Attrs: argmemonly mustprogress nofree nounwind readonly willreturn
declare i64 @strlen(i8* nocapture) local_unnamed_addr #3

; Function Attrs: nofree nounwind
declare noundef i32 @printf(i8* nocapture noundef readonly, ...) local_unnamed_addr #2

; Function Attrs: argmemonly mustprogress nofree nosync nounwind willreturn
declare void @llvm.lifetime.end.p0i8(i64 immarg, i8* nocapture) #1

; Function Attrs: nofree nosync nounwind readnone willreturn
declare i32 @llvm.vector.reduce.add.v4i32(<4 x i32>) #4


!llvm.module.flags = !{!0, !1, !2, !3}
!llvm.ident = !{!4}

!0 = !{i32 1, !"wchar_size", i32 4}
!1 = !{i32 7, !"PIC Level", i32 2}
!2 = !{i32 7, !"PIE Level", i32 2}
!3 = !{i32 7, !"uwtable", i32 1}
!4 = !{!"clang version 13.0.0"}
!5 = !{!6, !6, i64 0}
!6 = !{!"omnipotent char", !7, i64 0}
!7 = !{!"Simple C/C++ TBAA"}
!8 = distinct !{!8, !9}
!9 = !{!"llvm.loop.mustprogress"}
!10 = distinct !{!10, !9, !11}
!11 = !{!"llvm.loop.isvectorized", i32 1}
!12 = distinct !{!12, !9, !13, !11}
!13 = !{!"llvm.loop.unroll.runtime.disable"}
!14 = !{!15, !15, i64 0}
!15 = !{!"double", !6, i64 0}
